MSP430 Assembler PC v20.2.4 Thu Sep 16 13:51:55 2021

Copyright (c) 2003-2018 Texas Instruments Incorporated
C:\Users\suresh4\AppData\Local\Temp\{036EF919-5F04-4A2C-9D72-805C30879177} PAGE    1

       1            ;******************************************************************************
       2            ;* MSP430 G3 C/C++ Codegen                                              PC v20.2.4.LTS *
       3            ;* Date/Time created: Thu Sep 16 13:51:55 2021                                *
       4            ;******************************************************************************
       5                    .compiler_opts --abi=eabi --diag_wrap=off --hll_source=on --mem_model:code=small --mem_model:d
       6            
       7            $C$DW$CU        .dwtag  DW_TAG_compile_unit
       8                    .dwattr $C$DW$CU, DW_AT_name("../NDEF.c")
       9                    .dwattr $C$DW$CU, DW_AT_producer("TI MSP430 G3 C/C++ Codegen PC v20.2.4.LTS Copyright (c) 2003
      10                    .dwattr $C$DW$CU, DW_AT_TI_version(0x01)
      11                    .dwattr $C$DW$CU, DW_AT_comp_dir("C:\Users\suresh4\Downloads\RF430FRL152H\RF430FRL152H\Debug")
      12                    .bound  ".TI.bound:DS", 7168, 0
      13                    .bound  ".TI.bound:EL", 7410, 0
      14                    .bound  ".TI.bound:Firmware_System_Control_Byte", 63591, 0
      15                    .bound  ".TI.bound:NFC_NDEF_Message", 63592, 0
      16                    .bound  ".TI.bound:NRX", 7332, 0
      17                    .bound  ".TI.bound:NTX", 7366, 0
      18                    .bound  ".TI.bound:PF", 7178, 0
      19                    .bound  ".TI.bound:RF", 7274, 0
      20            $C$DW$1 .dwtag  DW_TAG_variable
      21                    .dwattr $C$DW$1, DW_AT_name("RF13MCTL")
      22                    .dwattr $C$DW$1, DW_AT_TI_symbol_name("RF13MCTL")
      23                    .dwattr $C$DW$1, DW_AT_type(*$C$DW$T$42)
      24                    .dwattr $C$DW$1, DW_AT_declaration
      25                    .dwattr $C$DW$1, DW_AT_external
      26                    .dwattr $C$DW$1, DW_AT_decl_file("C:/ti/ccs1031/ccs/ccs_base/msp430/include/rf430frl152h.h")
      27                    .dwattr $C$DW$1, DW_AT_decl_line(0x208)
      28                    .dwattr $C$DW$1, DW_AT_decl_column(0x01)
      29            
      30            $C$DW$2 .dwtag  DW_TAG_variable
      31                    .dwattr $C$DW$2, DW_AT_name("RF13MINT")
      32                    .dwattr $C$DW$2, DW_AT_TI_symbol_name("RF13MINT")
      33                    .dwattr $C$DW$2, DW_AT_type(*$C$DW$T$42)
      34                    .dwattr $C$DW$2, DW_AT_declaration
      35                    .dwattr $C$DW$2, DW_AT_external
      36                    .dwattr $C$DW$2, DW_AT_decl_file("C:/ti/ccs1031/ccs/ccs_base/msp430/include/rf430frl152h.h")
      37                    .dwattr $C$DW$2, DW_AT_decl_line(0x20b)
      38                    .dwattr $C$DW$2, DW_AT_decl_column(0x01)
      39            
      40                    .global Firmware_System_Control_Byte
      41 000000               .sect   ".TI.bound:Firmware_System_Control_Byte"
      42                    .retain
      43                    .align  1
      44                    .elfsym Firmware_System_Control_Byte,SYM_SIZE(1)
      45 000000       Firmware_System_Control_Byte:
      46 000000 0042          .bits           0x42,8
      47                                    ; Firmware_System_Control_Byte @ 0
      48            
      49            $C$DW$3 .dwtag  DW_TAG_variable
      50                    .dwattr $C$DW$3, DW_AT_name("Firmware_System_Control_Byte")
      51                    .dwattr $C$DW$3, DW_AT_TI_symbol_name("Firmware_System_Control_Byte")
      52                    .dwattr $C$DW$3, DW_AT_location[DW_OP_addr Firmware_System_Control_Byte]
      53                    .dwattr $C$DW$3, DW_AT_type(*$C$DW$T$37)
      54                    .dwattr $C$DW$3, DW_AT_external
      55                    .dwattr $C$DW$3, DW_AT_decl_file("../NDEF.c")
MSP430 Assembler PC v20.2.4 Thu Sep 16 13:51:55 2021

Copyright (c) 2003-2018 Texas Instruments Incorporated
C:\Users\suresh4\AppData\Local\Temp\{036EF919-5F04-4A2C-9D72-805C30879177} PAGE    2

      56                    .dwattr $C$DW$3, DW_AT_decl_line(0x45)
      57                    .dwattr $C$DW$3, DW_AT_decl_column(0x16)
      58            
      59                    .global DS
      60 000000       DS:     .usect  ".TI.bound:DS",1,1
      61                    .retain ".TI.bound:DS"
      62            $C$DW$4 .dwtag  DW_TAG_variable
      63                    .dwattr $C$DW$4, DW_AT_name("DS")
      64                    .dwattr $C$DW$4, DW_AT_TI_symbol_name("DS")
      65                    .dwattr $C$DW$4, DW_AT_location[DW_OP_addr DS]
      66                    .dwattr $C$DW$4, DW_AT_type(*$C$DW$T$32)
      67                    .dwattr $C$DW$4, DW_AT_external
      68                    .dwattr $C$DW$4, DW_AT_decl_file("../NDEF.c")
      69                    .dwattr $C$DW$4, DW_AT_decl_line(0x4c)
      70                    .dwattr $C$DW$4, DW_AT_decl_column(0x07)
      71            
      72                    .global RF
      73 000000       RF:     .usect  ".TI.bound:RF",1,1
      74                    .retain ".TI.bound:RF"
      75            $C$DW$5 .dwtag  DW_TAG_variable
      76                    .dwattr $C$DW$5, DW_AT_name("RF")
      77                    .dwattr $C$DW$5, DW_AT_TI_symbol_name("RF")
      78                    .dwattr $C$DW$5, DW_AT_location[DW_OP_addr RF]
      79                    .dwattr $C$DW$5, DW_AT_type(*$C$DW$T$33)
      80                    .dwattr $C$DW$5, DW_AT_external
      81                    .dwattr $C$DW$5, DW_AT_decl_file("../NDEF.c")
      82                    .dwattr $C$DW$5, DW_AT_decl_line(0x4f)
      83                    .dwattr $C$DW$5, DW_AT_decl_column(0x0d)
      84            
      85                    .global NRX
      86 000000       NRX:    .usect  ".TI.bound:NRX",34,2
      87                    .retain ".TI.bound:NRX"
      88            $C$DW$6 .dwtag  DW_TAG_variable
      89                    .dwattr $C$DW$6, DW_AT_name("NRX")
      90                    .dwattr $C$DW$6, DW_AT_TI_symbol_name("NRX")
      91                    .dwattr $C$DW$6, DW_AT_location[DW_OP_addr NRX]
      92                    .dwattr $C$DW$6, DW_AT_type(*$C$DW$T$34)
      93                    .dwattr $C$DW$6, DW_AT_external
      94                    .dwattr $C$DW$6, DW_AT_decl_file("../NDEF.c")
      95                    .dwattr $C$DW$6, DW_AT_decl_line(0x52)
      96                    .dwattr $C$DW$6, DW_AT_decl_column(0x0d)
      97            
      98                    .global NTX
      99 000000       NTX:    .usect  ".TI.bound:NTX",34,2
     100                    .retain ".TI.bound:NTX"
     101            $C$DW$7 .dwtag  DW_TAG_variable
     102                    .dwattr $C$DW$7, DW_AT_name("NTX")
     103                    .dwattr $C$DW$7, DW_AT_TI_symbol_name("NTX")
     104                    .dwattr $C$DW$7, DW_AT_location[DW_OP_addr NTX]
     105                    .dwattr $C$DW$7, DW_AT_type(*$C$DW$T$35)
     106                    .dwattr $C$DW$7, DW_AT_external
     107                    .dwattr $C$DW$7, DW_AT_decl_file("../NDEF.c")
     108                    .dwattr $C$DW$7, DW_AT_decl_line(0x55)
     109                    .dwattr $C$DW$7, DW_AT_decl_column(0x0d)
     110            
MSP430 Assembler PC v20.2.4 Thu Sep 16 13:51:55 2021

Copyright (c) 2003-2018 Texas Instruments Incorporated
C:\Users\suresh4\AppData\Local\Temp\{036EF919-5F04-4A2C-9D72-805C30879177} PAGE    3

     111                    .global EL
     112 000000       EL:     .usect  ".TI.bound:EL",1,1
     113                    .retain ".TI.bound:EL"
     114            $C$DW$8 .dwtag  DW_TAG_variable
     115                    .dwattr $C$DW$8, DW_AT_name("EL")
     116                    .dwattr $C$DW$8, DW_AT_TI_symbol_name("EL")
     117                    .dwattr $C$DW$8, DW_AT_location[DW_OP_addr EL]
     118                    .dwattr $C$DW$8, DW_AT_type(*$C$DW$T$33)
     119                    .dwattr $C$DW$8, DW_AT_external
     120                    .dwattr $C$DW$8, DW_AT_decl_file("../NDEF.c")
     121                    .dwattr $C$DW$8, DW_AT_decl_line(0x58)
     122                    .dwattr $C$DW$8, DW_AT_decl_column(0x0d)
     123            
     124                    .global PF
     125 000000       PF:     .usect  ".TI.bound:PF",96,2
     126                    .retain ".TI.bound:PF"
     127            $C$DW$9 .dwtag  DW_TAG_variable
     128                    .dwattr $C$DW$9, DW_AT_name("PF")
     129                    .dwattr $C$DW$9, DW_AT_TI_symbol_name("PF")
     130                    .dwattr $C$DW$9, DW_AT_location[DW_OP_addr PF]
     131                    .dwattr $C$DW$9, DW_AT_type(*$C$DW$T$41)
     132                    .dwattr $C$DW$9, DW_AT_external
     133                    .dwattr $C$DW$9, DW_AT_decl_file("../NDEF.c")
     134                    .dwattr $C$DW$9, DW_AT_decl_line(0x5b)
     135                    .dwattr $C$DW$9, DW_AT_decl_column(0x0d)
     136            
     137                    .global NFC_NDEF_Message
     138 000000               .sect   ".TI.bound:NFC_NDEF_Message"
     139                    .retain
     140                    .align  2
     141                    .elfsym NFC_NDEF_Message,SYM_SIZE(24)
     142 000000       NFC_NDEF_Message:
     143 000000 00E1          .bits           0xe1,8
     144                                    ; NFC_NDEF_Message[0] @ 0
     145 000000 40E1          .bits           0x40,8
     146                                    ; NFC_NDEF_Message[1] @ 8
     147 000002 0079          .bits           0x79,8
     148                                    ; NFC_NDEF_Message[2] @ 16
     149 000002 0079          .bits           0,8
     150                                    ; NFC_NDEF_Message[3] @ 24
     151 000004 0003          .bits           0x3,8
     152                                    ; NFC_NDEF_Message[4] @ 32
     153 000004 0D03          .bits           0xd,8
     154                                    ; NFC_NDEF_Message[5] @ 40
     155 000006 00D1          .bits           0xd1,8
     156                                    ; NFC_NDEF_Message[6] @ 48
     157 000006 01D1          .bits           0x1,8
     158                                    ; NFC_NDEF_Message[7] @ 56
     159 000008 0009          .bits           0x9,8
     160                                    ; NFC_NDEF_Message[8] @ 64
     161 000008 5509          .bits           0x55,8
     162                                    ; NFC_NDEF_Message[9] @ 72
     163 00000a 0001          .bits           0x1,8
     164                                    ; NFC_NDEF_Message[10] @ 80
     165 00000a 7A01          .bits           0x7a,8
MSP430 Assembler PC v20.2.4 Thu Sep 16 13:51:55 2021

Copyright (c) 2003-2018 Texas Instruments Incorporated
C:\Users\suresh4\AppData\Local\Temp\{036EF919-5F04-4A2C-9D72-805C30879177} PAGE    4

     166                                    ; NFC_NDEF_Message[11] @ 88
     167 00000c 0074          .bits           0x74,8
     168                                    ; NFC_NDEF_Message[12] @ 96
     169 00000c 6974          .bits           0x69,8
     170                                    ; NFC_NDEF_Message[13] @ 104
     171 00000e 002E          .bits           0x2e,8
     172                                    ; NFC_NDEF_Message[14] @ 112
     173 00000e 632E          .bits           0x63,8
     174                                    ; NFC_NDEF_Message[15] @ 120
     175 000010 0064          .bits           0x64,8
     176                                    ; NFC_NDEF_Message[16] @ 128
     177 000010 6F64          .bits           0x6f,8
     178                                    ; NFC_NDEF_Message[17] @ 136
     179 000012 006D          .bits           0x6d,8
     180                                    ; NFC_NDEF_Message[18] @ 144
     181 000012 FE6D          .bits           0xfe,8
     182                                    ; NFC_NDEF_Message[19] @ 152
     183 000014 0000          .bits           0,8
     184                                    ; NFC_NDEF_Message[20] @ 160
     185 000014 0000          .bits           0,8
     186                                    ; NFC_NDEF_Message[21] @ 168
     187 000016 0000          .bits           0,8
     188            
     189            
     190            $C$DW$10        .dwtag  DW_TAG_variable
     191                    .dwattr $C$DW$10, DW_AT_name("NFC_NDEF_Message")
     192                    .dwattr $C$DW$10, DW_AT_TI_symbol_name("NFC_NDEF_Message")
     193                    .dwattr $C$DW$10, DW_AT_location[DW_OP_addr NFC_NDEF_Message]
     194                    .dwattr $C$DW$10, DW_AT_type(*$C$DW$T$36)
     195                    .dwattr $C$DW$10, DW_AT_external
     196                    .dwattr $C$DW$10, DW_AT_decl_file("../NDEF.c")
     197                    .dwattr $C$DW$10, DW_AT_decl_line(0x67)
     198                    .dwattr $C$DW$10, DW_AT_decl_column(0x0d)
     199            
     200            
     201            $C$DW$11        .dwtag  DW_TAG_subprogram
     202                    .dwattr $C$DW$11, DW_AT_name("memset")
     203                    .dwattr $C$DW$11, DW_AT_TI_symbol_name("memset")
     204                    .dwattr $C$DW$11, DW_AT_type(*$C$DW$T$3)
     205                    .dwattr $C$DW$11, DW_AT_declaration
     206                    .dwattr $C$DW$11, DW_AT_external
     207                    .dwattr $C$DW$11, DW_AT_decl_file("C:/ti/ccs1031/ccs/tools/compiler/ti-cgt-msp430_20.2.4.LTS/i
     208                    .dwattr $C$DW$11, DW_AT_decl_line(0x84)
     209                    .dwattr $C$DW$11, DW_AT_decl_column(0x16)
     210            $C$DW$12        .dwtag  DW_TAG_formal_parameter
     211                    .dwattr $C$DW$12, DW_AT_type(*$C$DW$T$3)
     212            
     213            $C$DW$13        .dwtag  DW_TAG_formal_parameter
     214                    .dwattr $C$DW$13, DW_AT_type(*$C$DW$T$10)
     215            
     216            $C$DW$14        .dwtag  DW_TAG_formal_parameter
     217                    .dwattr $C$DW$14, DW_AT_type(*$C$DW$T$19)
     218            
     219                    .dwendtag $C$DW$11
     220            
MSP430 Assembler PC v20.2.4 Thu Sep 16 13:51:55 2021

Copyright (c) 2003-2018 Texas Instruments Incorporated
C:\Users\suresh4\AppData\Local\Temp\{036EF919-5F04-4A2C-9D72-805C30879177} PAGE    5

     221            
     222            $C$DW$15        .dwtag  DW_TAG_subprogram
     223                    .dwattr $C$DW$15, DW_AT_name("BlockLockROM_Patched")
     224                    .dwattr $C$DW$15, DW_AT_TI_symbol_name("BlockLockROM_Patched")
     225                    .dwattr $C$DW$15, DW_AT_type(*$C$DW$T$22)
     226                    .dwattr $C$DW$15, DW_AT_declaration
     227                    .dwattr $C$DW$15, DW_AT_external
     228                    .dwattr $C$DW$15, DW_AT_decl_file("..\patch.h")
     229                    .dwattr $C$DW$15, DW_AT_decl_line(0x2e)
     230                    .dwattr $C$DW$15, DW_AT_decl_column(0x07)
     231            $C$DW$16        .dwtag  DW_TAG_formal_parameter
     232                    .dwattr $C$DW$16, DW_AT_type(*$C$DW$T$22)
     233            
     234            $C$DW$17        .dwtag  DW_TAG_formal_parameter
     235                    .dwattr $C$DW$17, DW_AT_type(*$C$DW$T$32)
     236            
     237                    .dwendtag $C$DW$15
     238            
     239            ;       C:\ti\ccs1031\ccs\tools\compiler\ti-cgt-msp430_20.2.4.LTS\bin\opt430.exe C:\\Users\\suresh4\\A
     240 000000               .sect   ".text:initISO15693"
     241                    .clink
     242                    .global initISO15693
     243            
     244            $C$DW$18        .dwtag  DW_TAG_subprogram
     245                    .dwattr $C$DW$18, DW_AT_name("initISO15693")
     246                    .dwattr $C$DW$18, DW_AT_low_pc(initISO15693)
     247                    .dwattr $C$DW$18, DW_AT_high_pc(0x00)
     248                    .dwattr $C$DW$18, DW_AT_TI_symbol_name("initISO15693")
     249                    .dwattr $C$DW$18, DW_AT_external
     250                    .dwattr $C$DW$18, DW_AT_TI_begin_file("../NDEF.c")
     251                    .dwattr $C$DW$18, DW_AT_TI_begin_line(0x96)
     252                    .dwattr $C$DW$18, DW_AT_TI_begin_column(0x06)
     253                    .dwattr $C$DW$18, DW_AT_decl_file("../NDEF.c")
     254                    .dwattr $C$DW$18, DW_AT_decl_line(0x96)
     255                    .dwattr $C$DW$18, DW_AT_decl_column(0x06)
     256                    .dwattr $C$DW$18, DW_AT_TI_max_frame_size(0x02)
     257                    .dwpsn  file "../NDEF.c",line 151,column 1,is_stmt,address initISO15693,isa 0
     258            
     259                    .dwfde $C$DW$CIE, initISO15693
     260            $C$DW$19        .dwtag  DW_TAG_formal_parameter
     261                    .dwattr $C$DW$19, DW_AT_name("parameters")
     262                    .dwattr $C$DW$19, DW_AT_TI_symbol_name("parameters")
     263                    .dwattr $C$DW$19, DW_AT_type(*$C$DW$T$22)
     264                    .dwattr $C$DW$19, DW_AT_location[DW_OP_reg12]
     265            
     266            
     267            ;*****************************************************************************
     268            ;* FUNCTION NAME: initISO15693                                               *
     269            ;*                                                                           *
     270            ;*   Regs Modified     : SP,SR,r11,r12,r13,r14,r15                           *
     271            ;*   Regs Used         : SP,SR,r11,r12,r13,r14,r15                           *
     272            ;*   Local Frame Size  : 0 Args + 0 Auto + 0 Save = 0 byte                   *
     273            ;*****************************************************************************
     274            initISO15693:
     275            ;* --------------------------------------------------------------------------*
MSP430 Assembler PC v20.2.4 Thu Sep 16 13:51:55 2021

Copyright (c) 2003-2018 Texas Instruments Incorporated
C:\Users\suresh4\AppData\Local\Temp\{036EF919-5F04-4A2C-9D72-805C30879177} PAGE    6

     276            ;* r12   assigned to parameters
     277            $C$DW$20        .dwtag  DW_TAG_variable
     278                    .dwattr $C$DW$20, DW_AT_name("parameters")
     279                    .dwattr $C$DW$20, DW_AT_TI_symbol_name("parameters")
     280                    .dwattr $C$DW$20, DW_AT_type(*$C$DW$T$40)
     281                    .dwattr $C$DW$20, DW_AT_location[DW_OP_reg12]
     282            
     283                    .dwcfi  cfa_offset, 2
     284                    .dwcfi  save_reg_to_mem, 16, -2
     285                    .dwpsn  file "../NDEF.c",line 153,column 3,is_stmt,isa 0
     286 000000 D0B2          OR.W      #7,&RF13MCTL+0        ; [] |153| 
         000002 0007 
         000004 0000!
     287                    .dwpsn  file "../NDEF.c",line 155,column 3,is_stmt,isa 0
     288 000006 D0B2          OR.W      #33024,&RF13MINT+0    ; [] |155| 
         000008 8100 
         00000a 0000!
     289                    .dwpsn  file "../NDEF.c",line 157,column 3,is_stmt,isa 0
     290 00000c B23C          BIT.W     #8,r12                ; [] |157| 
     291 00000e 2408          JEQ       $C$L1                 ; [] |157| 
     292                                                      ; [] |157| 
     293            ;* --------------------------------------------------------------------------*
     294                    .dwpsn  file "../NDEF.c",line 159,column 5,is_stmt,isa 0
     295 000010 403C          MOV.W     #63552,r12            ; [] |159| 
         000012 F840 
     296 000014 403D          MOV.W     #255,r13              ; [] |159| 
         000016 00FF 
     297 000018 403E          MOV.W     #38,r14               ; [] |159| 
         00001a 0026 
     298            $C$DW$21        .dwtag  DW_TAG_TI_branch
     299                    .dwattr $C$DW$21, DW_AT_low_pc(0x00)
     300                    .dwattr $C$DW$21, DW_AT_name("memset")
     301                    .dwattr $C$DW$21, DW_AT_TI_call
     302                    .dwattr $C$DW$21, DW_AT_TI_return
     303            
     304 00001c 4030          BR        #memset               ; [] |159| 
         00001e 0000!
     305                                                      ; [] |159| 
     306            ;* --------------------------------------------------------------------------*
     307            $C$L1:    
     308            $C$DW$22        .dwtag  DW_TAG_TI_branch
     309                    .dwattr $C$DW$22, DW_AT_low_pc(0x00)
     310                    .dwattr $C$DW$22, DW_AT_TI_return
     311            
     312 000020 4130          RET       ; [] 
     313                    ; [] 
     314                    .dwattr $C$DW$18, DW_AT_TI_end_file("../NDEF.c")
     315                    .dwattr $C$DW$18, DW_AT_TI_end_line(0xa5)
     316                    .dwattr $C$DW$18, DW_AT_TI_end_column(0x01)
     317                    .dwendentry
     318                    .dwendtag $C$DW$18
     319            
     320 000000               .sect   ".text:BlockLockAPI"
     321                    .clink
     322                    .global BlockLockAPI
MSP430 Assembler PC v20.2.4 Thu Sep 16 13:51:55 2021

Copyright (c) 2003-2018 Texas Instruments Incorporated
C:\Users\suresh4\AppData\Local\Temp\{036EF919-5F04-4A2C-9D72-805C30879177} PAGE    7

     323            
     324            $C$DW$23        .dwtag  DW_TAG_subprogram
     325                    .dwattr $C$DW$23, DW_AT_name("BlockLockAPI")
     326                    .dwattr $C$DW$23, DW_AT_low_pc(BlockLockAPI)
     327                    .dwattr $C$DW$23, DW_AT_high_pc(0x00)
     328                    .dwattr $C$DW$23, DW_AT_TI_symbol_name("BlockLockAPI")
     329                    .dwattr $C$DW$23, DW_AT_external
     330                    .dwattr $C$DW$23, DW_AT_type(*$C$DW$T$22)
     331                    .dwattr $C$DW$23, DW_AT_TI_begin_file("../NDEF.c")
     332                    .dwattr $C$DW$23, DW_AT_TI_begin_line(0xb3)
     333                    .dwattr $C$DW$23, DW_AT_TI_begin_column(0x07)
     334                    .dwattr $C$DW$23, DW_AT_decl_file("../NDEF.c")
     335                    .dwattr $C$DW$23, DW_AT_decl_line(0xb3)
     336                    .dwattr $C$DW$23, DW_AT_decl_column(0x07)
     337                    .dwattr $C$DW$23, DW_AT_TI_max_frame_size(0x02)
     338                    .dwpsn  file "../NDEF.c",line 180,column 1,is_stmt,address BlockLockAPI,isa 0
     339            
     340                    .dwfde $C$DW$CIE, BlockLockAPI
     341            $C$DW$24        .dwtag  DW_TAG_formal_parameter
     342                    .dwattr $C$DW$24, DW_AT_name("block")
     343                    .dwattr $C$DW$24, DW_AT_TI_symbol_name("block")
     344                    .dwattr $C$DW$24, DW_AT_type(*$C$DW$T$22)
     345                    .dwattr $C$DW$24, DW_AT_location[DW_OP_reg12]
     346            
     347            $C$DW$25        .dwtag  DW_TAG_formal_parameter
     348                    .dwattr $C$DW$25, DW_AT_name("checkLock")
     349                    .dwattr $C$DW$25, DW_AT_TI_symbol_name("checkLock")
     350                    .dwattr $C$DW$25, DW_AT_type(*$C$DW$T$32)
     351                    .dwattr $C$DW$25, DW_AT_location[DW_OP_reg13]
     352            
     353            
     354            ;*****************************************************************************
     355            ;* FUNCTION NAME: BlockLockAPI                                               *
     356            ;*                                                                           *
     357            ;*   Regs Modified     : SR,r11,r12,r13,r14,r15                              *
     358            ;*   Regs Used         : SR,r11,r12,r13,r14,r15                              *
     359            ;*   Local Frame Size  : 0 Args + 0 Auto + 0 Save = 0 byte                   *
     360            ;*****************************************************************************
     361 000000       BlockLockAPI:
     362            ;* --------------------------------------------------------------------------*
     363                    .dwcfi  cfa_offset, 2
     364                    .dwcfi  save_reg_to_mem, 16, -2
     365                    .dwpsn  file "../NDEF.c",line 183,column 2,is_stmt,isa 0
     366            $C$DW$26        .dwtag  DW_TAG_TI_branch
     367                    .dwattr $C$DW$26, DW_AT_low_pc(0x00)
     368                    .dwattr $C$DW$26, DW_AT_name("BlockLockROM_Patched")
     369                    .dwattr $C$DW$26, DW_AT_TI_call
     370                    .dwattr $C$DW$26, DW_AT_TI_return
     371            
     372 000000 4030          BR        #BlockLockROM_Patched ; [] |183| 
         000002 0000!
     373                                                      ; [] |183| 
     374                    .dwattr $C$DW$23, DW_AT_TI_end_file("../NDEF.c")
     375                    .dwattr $C$DW$23, DW_AT_TI_end_line(0xb9)
     376                    .dwattr $C$DW$23, DW_AT_TI_end_column(0x01)
MSP430 Assembler PC v20.2.4 Thu Sep 16 13:51:55 2021

Copyright (c) 2003-2018 Texas Instruments Incorporated
C:\Users\suresh4\AppData\Local\Temp\{036EF919-5F04-4A2C-9D72-805C30879177} PAGE    8

     377                    .dwendentry
     378                    .dwendtag $C$DW$23
     379            
     380            ;*****************************************************************************
     381            ;* UNDEFINED EXTERNAL REFERENCES                                             *
     382            ;*****************************************************************************
     383                    .global RF13MCTL
     384                    .global RF13MINT
     385                    .global memset
     386                    .global BlockLockROM_Patched
     387            
     388            ;******************************************************************************
     389            ;* BUILD ATTRIBUTES                                                           *
     390            ;******************************************************************************
     391                    .battr "TI", Tag_File, 1, Tag_LPM_INFO(1)
     392                    .battr "TI", Tag_File, 1, Tag_PORTS_INIT_INFO("012345678901ABCDEFGHIJ0000000000001000000000000
     393                    .battr "TI", Tag_File, 1, Tag_LEA_INFO(1)
     394                    .battr "TI", Tag_File, 1, Tag_HW_MPY32_INFO(1)
     395                    .battr "TI", Tag_File, 1, Tag_HW_MPY_ISR_INFO(1)
     396                    .battr "TI", Tag_File, 1, Tag_HW_MPY_INLINE_INFO(1)
     397                    .battr "mspabi", Tag_File, 1, Tag_enum_size(3)
     398            
     399            ;******************************************************************************
     400            ;* TYPE INFORMATION                                                           *
     401            ;******************************************************************************
     402            $C$DW$T$2       .dwtag  DW_TAG_unspecified_type
     403                    .dwattr $C$DW$T$2, DW_AT_name("void")
     404            
     405            $C$DW$T$3       .dwtag  DW_TAG_pointer_type
     406                    .dwattr $C$DW$T$3, DW_AT_type(*$C$DW$T$2)
     407                    .dwattr $C$DW$T$3, DW_AT_address_class(0x10)
     408            
     409            
     410            $C$DW$T$24      .dwtag  DW_TAG_subroutine_type
     411                    .dwattr $C$DW$T$24, DW_AT_language(DW_LANG_C)
     412                    .dwendtag $C$DW$T$24
     413            
     414            $C$DW$T$25      .dwtag  DW_TAG_pointer_type
     415                    .dwattr $C$DW$T$25, DW_AT_type(*$C$DW$T$24)
     416                    .dwattr $C$DW$T$25, DW_AT_address_class(0x10)
     417            
     418            $C$DW$T$26      .dwtag  DW_TAG_typedef
     419                    .dwattr $C$DW$T$26, DW_AT_name("__SFR_FARPTR")
     420                    .dwattr $C$DW$T$26, DW_AT_type(*$C$DW$T$25)
     421                    .dwattr $C$DW$T$26, DW_AT_language(DW_LANG_C)
     422                    .dwattr $C$DW$T$26, DW_AT_decl_file("C:/ti/ccs1031/ccs/ccs_base/msp430/include/rf430frl152h.h"
     423                    .dwattr $C$DW$T$26, DW_AT_decl_line(0x44)
     424                    .dwattr $C$DW$T$26, DW_AT_decl_column(0x11)
     425            
     426            
     427            $C$DW$T$27      .dwtag  DW_TAG_subroutine_type
     428                    .dwattr $C$DW$T$27, DW_AT_language(DW_LANG_C)
     429                    .dwendtag $C$DW$T$27
     430            
     431            $C$DW$T$28      .dwtag  DW_TAG_pointer_type
MSP430 Assembler PC v20.2.4 Thu Sep 16 13:51:55 2021

Copyright (c) 2003-2018 Texas Instruments Incorporated
C:\Users\suresh4\AppData\Local\Temp\{036EF919-5F04-4A2C-9D72-805C30879177} PAGE    9

     432                    .dwattr $C$DW$T$28, DW_AT_type(*$C$DW$T$27)
     433                    .dwattr $C$DW$T$28, DW_AT_address_class(0x10)
     434            
     435            $C$DW$T$29      .dwtag  DW_TAG_typedef
     436                    .dwattr $C$DW$T$29, DW_AT_name("DriverFunction")
     437                    .dwattr $C$DW$T$29, DW_AT_type(*$C$DW$T$28)
     438                    .dwattr $C$DW$T$29, DW_AT_language(DW_LANG_C)
     439                    .dwattr $C$DW$T$29, DW_AT_decl_file("..\patch.h")
     440                    .dwattr $C$DW$T$29, DW_AT_decl_line(0x32)
     441                    .dwattr $C$DW$T$29, DW_AT_decl_column(0x0f)
     442            
     443            $C$DW$T$4       .dwtag  DW_TAG_base_type
     444                    .dwattr $C$DW$T$4, DW_AT_encoding(DW_ATE_boolean)
     445                    .dwattr $C$DW$T$4, DW_AT_name("bool")
     446                    .dwattr $C$DW$T$4, DW_AT_byte_size(0x01)
     447            
     448            $C$DW$T$5       .dwtag  DW_TAG_base_type
     449                    .dwattr $C$DW$T$5, DW_AT_encoding(DW_ATE_signed_char)
     450                    .dwattr $C$DW$T$5, DW_AT_name("signed char")
     451                    .dwattr $C$DW$T$5, DW_AT_byte_size(0x01)
     452            
     453            $C$DW$T$30      .dwtag  DW_TAG_typedef
     454                    .dwattr $C$DW$T$30, DW_AT_name("s08_t")
     455                    .dwattr $C$DW$T$30, DW_AT_type(*$C$DW$T$5)
     456                    .dwattr $C$DW$T$30, DW_AT_language(DW_LANG_C)
     457                    .dwattr $C$DW$T$30, DW_AT_decl_file("..\types.h")
     458                    .dwattr $C$DW$T$30, DW_AT_decl_line(0x34)
     459                    .dwattr $C$DW$T$30, DW_AT_decl_column(0x15)
     460            
     461            $C$DW$T$6       .dwtag  DW_TAG_base_type
     462                    .dwattr $C$DW$T$6, DW_AT_encoding(DW_ATE_unsigned_char)
     463                    .dwattr $C$DW$T$6, DW_AT_name("unsigned char")
     464                    .dwattr $C$DW$T$6, DW_AT_byte_size(0x01)
     465            
     466            $C$DW$T$32      .dwtag  DW_TAG_typedef
     467                    .dwattr $C$DW$T$32, DW_AT_name("u08_t")
     468                    .dwattr $C$DW$T$32, DW_AT_type(*$C$DW$T$6)
     469                    .dwattr $C$DW$T$32, DW_AT_language(DW_LANG_C)
     470                    .dwattr $C$DW$T$32, DW_AT_decl_file("..\types.h")
     471                    .dwattr $C$DW$T$32, DW_AT_decl_line(0x30)
     472                    .dwattr $C$DW$T$32, DW_AT_decl_column(0x17)
     473            
     474            $C$DW$T$33      .dwtag  DW_TAG_const_type
     475                    .dwattr $C$DW$T$33, DW_AT_type(*$C$DW$T$32)
     476            
     477            
     478            $C$DW$T$34      .dwtag  DW_TAG_array_type
     479                    .dwattr $C$DW$T$34, DW_AT_type(*$C$DW$T$33)
     480                    .dwattr $C$DW$T$34, DW_AT_language(DW_LANG_C)
     481                    .dwattr $C$DW$T$34, DW_AT_byte_size(0x22)
     482            $C$DW$27        .dwtag  DW_TAG_subrange_type
     483                    .dwattr $C$DW$27, DW_AT_upper_bound(0x21)
     484            
     485                    .dwendtag $C$DW$T$34
     486            
MSP430 Assembler PC v20.2.4 Thu Sep 16 13:51:55 2021

Copyright (c) 2003-2018 Texas Instruments Incorporated
C:\Users\suresh4\AppData\Local\Temp\{036EF919-5F04-4A2C-9D72-805C30879177} PAGE   10

     487            
     488            $C$DW$T$35      .dwtag  DW_TAG_array_type
     489                    .dwattr $C$DW$T$35, DW_AT_type(*$C$DW$T$33)
     490                    .dwattr $C$DW$T$35, DW_AT_language(DW_LANG_C)
     491                    .dwattr $C$DW$T$35, DW_AT_byte_size(0x21)
     492            $C$DW$28        .dwtag  DW_TAG_subrange_type
     493                    .dwattr $C$DW$28, DW_AT_upper_bound(0x20)
     494            
     495                    .dwendtag $C$DW$T$35
     496            
     497            
     498            $C$DW$T$36      .dwtag  DW_TAG_array_type
     499                    .dwattr $C$DW$T$36, DW_AT_type(*$C$DW$T$33)
     500                    .dwattr $C$DW$T$36, DW_AT_language(DW_LANG_C)
     501                    .dwattr $C$DW$T$36, DW_AT_byte_size(0x17)
     502            $C$DW$29        .dwtag  DW_TAG_subrange_type
     503                    .dwattr $C$DW$29, DW_AT_upper_bound(0x16)
     504            
     505                    .dwendtag $C$DW$T$36
     506            
     507            $C$DW$30        .dwtag  DW_TAG_const_type
     508                    .dwattr $C$DW$30, DW_AT_type(*$C$DW$T$32)
     509            
     510            $C$DW$T$37      .dwtag  DW_TAG_volatile_type
     511                    .dwattr $C$DW$T$37, DW_AT_type(*$C$DW$30)
     512            
     513            $C$DW$T$7       .dwtag  DW_TAG_base_type
     514                    .dwattr $C$DW$T$7, DW_AT_encoding(DW_ATE_signed_char)
     515                    .dwattr $C$DW$T$7, DW_AT_name("wchar_t")
     516                    .dwattr $C$DW$T$7, DW_AT_byte_size(0x02)
     517            
     518            $C$DW$T$8       .dwtag  DW_TAG_base_type
     519                    .dwattr $C$DW$T$8, DW_AT_encoding(DW_ATE_signed)
     520                    .dwattr $C$DW$T$8, DW_AT_name("short")
     521                    .dwattr $C$DW$T$8, DW_AT_byte_size(0x02)
     522            
     523            $C$DW$T$38      .dwtag  DW_TAG_typedef
     524                    .dwattr $C$DW$T$38, DW_AT_name("s16_t")
     525                    .dwattr $C$DW$T$38, DW_AT_type(*$C$DW$T$8)
     526                    .dwattr $C$DW$T$38, DW_AT_language(DW_LANG_C)
     527                    .dwattr $C$DW$T$38, DW_AT_decl_file("..\types.h")
     528                    .dwattr $C$DW$T$38, DW_AT_decl_line(0x35)
     529                    .dwattr $C$DW$T$38, DW_AT_decl_column(0x16)
     530            
     531            $C$DW$T$9       .dwtag  DW_TAG_base_type
     532                    .dwattr $C$DW$T$9, DW_AT_encoding(DW_ATE_unsigned)
     533                    .dwattr $C$DW$T$9, DW_AT_name("unsigned short")
     534                    .dwattr $C$DW$T$9, DW_AT_byte_size(0x02)
     535            
     536            $C$DW$T$22      .dwtag  DW_TAG_typedef
     537                    .dwattr $C$DW$T$22, DW_AT_name("u16_t")
     538                    .dwattr $C$DW$T$22, DW_AT_type(*$C$DW$T$9)
     539                    .dwattr $C$DW$T$22, DW_AT_language(DW_LANG_C)
     540                    .dwattr $C$DW$T$22, DW_AT_decl_file("..\types.h")
     541                    .dwattr $C$DW$T$22, DW_AT_decl_line(0x31)
MSP430 Assembler PC v20.2.4 Thu Sep 16 13:51:55 2021

Copyright (c) 2003-2018 Texas Instruments Incorporated
C:\Users\suresh4\AppData\Local\Temp\{036EF919-5F04-4A2C-9D72-805C30879177} PAGE   11

     542                    .dwattr $C$DW$T$22, DW_AT_decl_column(0x18)
     543            
     544            $C$DW$T$40      .dwtag  DW_TAG_const_type
     545                    .dwattr $C$DW$T$40, DW_AT_type(*$C$DW$T$22)
     546            
     547            
     548            $C$DW$T$41      .dwtag  DW_TAG_array_type
     549                    .dwattr $C$DW$T$41, DW_AT_type(*$C$DW$T$40)
     550                    .dwattr $C$DW$T$41, DW_AT_language(DW_LANG_C)
     551                    .dwattr $C$DW$T$41, DW_AT_byte_size(0x60)
     552            $C$DW$31        .dwtag  DW_TAG_subrange_type
     553                    .dwattr $C$DW$31, DW_AT_upper_bound(0x2f)
     554            
     555                    .dwendtag $C$DW$T$41
     556            
     557            $C$DW$T$10      .dwtag  DW_TAG_base_type
     558                    .dwattr $C$DW$T$10, DW_AT_encoding(DW_ATE_signed)
     559                    .dwattr $C$DW$T$10, DW_AT_name("int")
     560                    .dwattr $C$DW$T$10, DW_AT_byte_size(0x02)
     561            
     562            $C$DW$T$11      .dwtag  DW_TAG_base_type
     563                    .dwattr $C$DW$T$11, DW_AT_encoding(DW_ATE_unsigned)
     564                    .dwattr $C$DW$T$11, DW_AT_name("unsigned int")
     565                    .dwattr $C$DW$T$11, DW_AT_byte_size(0x02)
     566            
     567            $C$DW$T$42      .dwtag  DW_TAG_volatile_type
     568                    .dwattr $C$DW$T$42, DW_AT_type(*$C$DW$T$11)
     569            
     570            $C$DW$T$19      .dwtag  DW_TAG_typedef
     571                    .dwattr $C$DW$T$19, DW_AT_name("size_t")
     572                    .dwattr $C$DW$T$19, DW_AT_type(*$C$DW$T$11)
     573                    .dwattr $C$DW$T$19, DW_AT_language(DW_LANG_C)
     574                    .dwattr $C$DW$T$19, DW_AT_decl_file("C:/ti/ccs1031/ccs/tools/compiler/ti-cgt-msp430_20.2.4.LTS
     575                    .dwattr $C$DW$T$19, DW_AT_decl_line(0x44)
     576                    .dwattr $C$DW$T$19, DW_AT_decl_column(0x19)
     577            
     578            $C$DW$T$12      .dwtag  DW_TAG_base_type
     579                    .dwattr $C$DW$T$12, DW_AT_encoding(DW_ATE_signed)
     580                    .dwattr $C$DW$T$12, DW_AT_name("long")
     581                    .dwattr $C$DW$T$12, DW_AT_byte_size(0x04)
     582            
     583            $C$DW$T$46      .dwtag  DW_TAG_typedef
     584                    .dwattr $C$DW$T$46, DW_AT_name("s32_t")
     585                    .dwattr $C$DW$T$46, DW_AT_type(*$C$DW$T$12)
     586                    .dwattr $C$DW$T$46, DW_AT_language(DW_LANG_C)
     587                    .dwattr $C$DW$T$46, DW_AT_decl_file("..\types.h")
     588                    .dwattr $C$DW$T$46, DW_AT_decl_line(0x36)
     589                    .dwattr $C$DW$T$46, DW_AT_decl_column(0x15)
     590            
     591            $C$DW$T$13      .dwtag  DW_TAG_base_type
     592                    .dwattr $C$DW$T$13, DW_AT_encoding(DW_ATE_unsigned)
     593                    .dwattr $C$DW$T$13, DW_AT_name("unsigned long")
     594                    .dwattr $C$DW$T$13, DW_AT_byte_size(0x04)
     595            
     596            $C$DW$T$47      .dwtag  DW_TAG_typedef
MSP430 Assembler PC v20.2.4 Thu Sep 16 13:51:55 2021

Copyright (c) 2003-2018 Texas Instruments Incorporated
C:\Users\suresh4\AppData\Local\Temp\{036EF919-5F04-4A2C-9D72-805C30879177} PAGE   12

     597                    .dwattr $C$DW$T$47, DW_AT_name("u32_t")
     598                    .dwattr $C$DW$T$47, DW_AT_type(*$C$DW$T$13)
     599                    .dwattr $C$DW$T$47, DW_AT_language(DW_LANG_C)
     600                    .dwattr $C$DW$T$47, DW_AT_decl_file("..\types.h")
     601                    .dwattr $C$DW$T$47, DW_AT_decl_line(0x32)
     602                    .dwattr $C$DW$T$47, DW_AT_decl_column(0x17)
     603            
     604            $C$DW$T$14      .dwtag  DW_TAG_base_type
     605                    .dwattr $C$DW$T$14, DW_AT_encoding(DW_ATE_signed)
     606                    .dwattr $C$DW$T$14, DW_AT_name("long long")
     607                    .dwattr $C$DW$T$14, DW_AT_byte_size(0x08)
     608            
     609            $C$DW$T$15      .dwtag  DW_TAG_base_type
     610                    .dwattr $C$DW$T$15, DW_AT_encoding(DW_ATE_unsigned)
     611                    .dwattr $C$DW$T$15, DW_AT_name("unsigned long long")
     612                    .dwattr $C$DW$T$15, DW_AT_byte_size(0x08)
     613            
     614            $C$DW$T$16      .dwtag  DW_TAG_base_type
     615                    .dwattr $C$DW$T$16, DW_AT_encoding(DW_ATE_float)
     616                    .dwattr $C$DW$T$16, DW_AT_name("float")
     617                    .dwattr $C$DW$T$16, DW_AT_byte_size(0x04)
     618            
     619            $C$DW$T$17      .dwtag  DW_TAG_base_type
     620                    .dwattr $C$DW$T$17, DW_AT_encoding(DW_ATE_float)
     621                    .dwattr $C$DW$T$17, DW_AT_name("double")
     622                    .dwattr $C$DW$T$17, DW_AT_byte_size(0x08)
     623            
     624            $C$DW$T$18      .dwtag  DW_TAG_base_type
     625                    .dwattr $C$DW$T$18, DW_AT_encoding(DW_ATE_float)
     626                    .dwattr $C$DW$T$18, DW_AT_name("long double")
     627                    .dwattr $C$DW$T$18, DW_AT_byte_size(0x08)
     628            
     629                    .dwattr $C$DW$CU, DW_AT_language(DW_LANG_C)
     630            
     631            ;***************************************************************
     632            ;* DWARF CIE ENTRIES                                           *
     633            ;***************************************************************
     634            
     635            $C$DW$CIE       .dwcie 16
     636                    .dwcfi  cfa_register, 1
     637                    .dwcfi  cfa_offset, 0
     638                    .dwcfi  same_value, 0
     639                    .dwcfi  same_value, 1
     640                    .dwcfi  same_value, 3
     641                    .dwcfi  same_value, 4
     642                    .dwcfi  same_value, 5
     643                    .dwcfi  same_value, 6
     644                    .dwcfi  same_value, 7
     645                    .dwcfi  same_value, 8
     646                    .dwcfi  same_value, 9
     647                    .dwcfi  same_value, 10
     648                    .dwendentry
     649            
     650            ;***************************************************************
     651            ;* DWARF REGISTER MAP                                          *
MSP430 Assembler PC v20.2.4 Thu Sep 16 13:51:55 2021

Copyright (c) 2003-2018 Texas Instruments Incorporated
C:\Users\suresh4\AppData\Local\Temp\{036EF919-5F04-4A2C-9D72-805C30879177} PAGE   13

     652            ;***************************************************************
     653            
     654            $C$DW$32        .dwtag  DW_TAG_TI_assign_register
     655                    .dwattr $C$DW$32, DW_AT_name("PC")
     656                    .dwattr $C$DW$32, DW_AT_location[DW_OP_reg0]
     657            
     658            $C$DW$33        .dwtag  DW_TAG_TI_assign_register
     659                    .dwattr $C$DW$33, DW_AT_name("SP")
     660                    .dwattr $C$DW$33, DW_AT_location[DW_OP_reg1]
     661            
     662            $C$DW$34        .dwtag  DW_TAG_TI_assign_register
     663                    .dwattr $C$DW$34, DW_AT_name("SR")
     664                    .dwattr $C$DW$34, DW_AT_location[DW_OP_reg2]
     665            
     666            $C$DW$35        .dwtag  DW_TAG_TI_assign_register
     667                    .dwattr $C$DW$35, DW_AT_name("CG")
     668                    .dwattr $C$DW$35, DW_AT_location[DW_OP_reg3]
     669            
     670            $C$DW$36        .dwtag  DW_TAG_TI_assign_register
     671                    .dwattr $C$DW$36, DW_AT_name("r4")
     672                    .dwattr $C$DW$36, DW_AT_location[DW_OP_reg4]
     673            
     674            $C$DW$37        .dwtag  DW_TAG_TI_assign_register
     675                    .dwattr $C$DW$37, DW_AT_name("r5")
     676                    .dwattr $C$DW$37, DW_AT_location[DW_OP_reg5]
     677            
     678            $C$DW$38        .dwtag  DW_TAG_TI_assign_register
     679                    .dwattr $C$DW$38, DW_AT_name("r6")
     680                    .dwattr $C$DW$38, DW_AT_location[DW_OP_reg6]
     681            
     682            $C$DW$39        .dwtag  DW_TAG_TI_assign_register
     683                    .dwattr $C$DW$39, DW_AT_name("r7")
     684                    .dwattr $C$DW$39, DW_AT_location[DW_OP_reg7]
     685            
     686            $C$DW$40        .dwtag  DW_TAG_TI_assign_register
     687                    .dwattr $C$DW$40, DW_AT_name("r8")
     688                    .dwattr $C$DW$40, DW_AT_location[DW_OP_reg8]
     689            
     690            $C$DW$41        .dwtag  DW_TAG_TI_assign_register
     691                    .dwattr $C$DW$41, DW_AT_name("r9")
     692                    .dwattr $C$DW$41, DW_AT_location[DW_OP_reg9]
     693            
     694            $C$DW$42        .dwtag  DW_TAG_TI_assign_register
     695                    .dwattr $C$DW$42, DW_AT_name("r10")
     696                    .dwattr $C$DW$42, DW_AT_location[DW_OP_reg10]
     697            
     698            $C$DW$43        .dwtag  DW_TAG_TI_assign_register
     699                    .dwattr $C$DW$43, DW_AT_name("r11")
     700                    .dwattr $C$DW$43, DW_AT_location[DW_OP_reg11]
     701            
     702            $C$DW$44        .dwtag  DW_TAG_TI_assign_register
     703                    .dwattr $C$DW$44, DW_AT_name("r12")
     704                    .dwattr $C$DW$44, DW_AT_location[DW_OP_reg12]
     705            
     706            $C$DW$45        .dwtag  DW_TAG_TI_assign_register
MSP430 Assembler PC v20.2.4 Thu Sep 16 13:51:55 2021

Copyright (c) 2003-2018 Texas Instruments Incorporated
C:\Users\suresh4\AppData\Local\Temp\{036EF919-5F04-4A2C-9D72-805C30879177} PAGE   14

     707                    .dwattr $C$DW$45, DW_AT_name("r13")
     708                    .dwattr $C$DW$45, DW_AT_location[DW_OP_reg13]
     709            
     710            $C$DW$46        .dwtag  DW_TAG_TI_assign_register
     711                    .dwattr $C$DW$46, DW_AT_name("r14")
     712                    .dwattr $C$DW$46, DW_AT_location[DW_OP_reg14]
     713            
     714            $C$DW$47        .dwtag  DW_TAG_TI_assign_register
     715                    .dwattr $C$DW$47, DW_AT_name("r15")
     716                    .dwattr $C$DW$47, DW_AT_location[DW_OP_reg15]
     717            
     718            $C$DW$48        .dwtag  DW_TAG_TI_assign_register
     719                    .dwattr $C$DW$48, DW_AT_name("CIE_RETA")
     720                    .dwattr $C$DW$48, DW_AT_location[DW_OP_reg16]
     721            
     722                    .dwendtag $C$DW$CU
     723            

No Assembly Errors, No Assembly Warnings
